target datalayout = "e-m:e-p270:32:32-p271:32:32-p272:64:64-i64:64-i128:128-f80:128-n8:16:32:64-S128"
target triple = "x86_64-unknown-linux-gnu"

%struct.USBWacomState = type { %struct.USBDevice, ptr, ptr, i32, i32, i32, i32, i32, i32, i32, i32, i8, i32 }
%struct.USBDevice = type { %struct.DeviceState, ptr, ptr, ptr, ptr, i32, ptr, ptr, i32, i32, i8, [32 x i8], i32, i8, i32, [8 x i8], [4096 x i8], i32, i32, i32, i32, %struct.USBEndpoint, [15 x %struct.USBEndpoint], [15 x %struct.USBEndpoint], %struct.anon, ptr, ptr, i32, i32, [16 x i32], ptr, [16 x ptr] }
%struct.DeviceState = type { %struct.Object, ptr, ptr, i8, i8, i64, ptr, i32, i8, ptr, %struct.NamedGPIOListHead, %struct.NamedClockListHead, %struct.BusStateHead, i32, i32, i32, %struct.ResettableState, ptr, %struct.MemReentrancyGuard }
%struct.Object = type { ptr, ptr, ptr, i32, ptr }
%struct.NamedGPIOListHead = type { ptr }
%struct.NamedClockListHead = type { ptr }
%struct.BusStateHead = type { ptr }
%struct.ResettableState = type { i32, i8, i8 }
%struct.MemReentrancyGuard = type { i8 }
%struct.USBEndpoint = type { i8, i8, i8, i8, i32, i32, i8, i8, ptr, %union.anon }
%union.anon = type { %struct.QTailQLink }
%struct.QTailQLink = type { ptr, ptr }
%struct.anon = type { ptr }

; Function Attrs: nounwind sspstrong uwtable
define internal void @usb_mouse_event(ptr noundef %opaque, i32 noundef %dx1, i32 noundef %dy1, i32 noundef %dz1, i32 noundef %buttons_state) #0 {
entry:
  %opaque.addr = alloca ptr, align 8
  %dx1.addr = alloca i32, align 4
  %dy1.addr = alloca i32, align 4
  %dz1.addr = alloca i32, align 4
  %buttons_state.addr = alloca i32, align 4
  %s = alloca ptr, align 8
  store ptr %opaque, ptr %opaque.addr, align 8
  store i32 %dx1, ptr %dx1.addr, align 4
  store i32 %dy1, ptr %dy1.addr, align 4
  store i32 %dz1, ptr %dz1.addr, align 4
  store i32 %buttons_state, ptr %buttons_state.addr, align 4
  %0 = load ptr, ptr %opaque.addr, align 8
  store ptr %0, ptr %s, align 8
  %1 = load i32, ptr %dx1.addr, align 4
  %2 = load ptr, ptr %s, align 8
  %dx = getelementptr inbounds %struct.USBWacomState, ptr %2, i32 0, i32 3
  %3 = load i32, ptr %dx, align 8
  %add = add i32 %3, %1
  store i32 %add, ptr %dx, align 8
  %4 = load i32, ptr %dy1.addr, align 4
  %5 = load ptr, ptr %s, align 8
  %dy = getelementptr inbounds %struct.USBWacomState, ptr %5, i32 0, i32 4
  %6 = load i32, ptr %dy, align 4
  %add1 = add i32 %6, %4
  store i32 %add1, ptr %dy, align 4
  %7 = load i32, ptr %dz1.addr, align 4
  %8 = load ptr, ptr %s, align 8
  %dz = getelementptr inbounds %struct.USBWacomState, ptr %8, i32 0, i32 5
  %9 = load i32, ptr %dz, align 8
  %add2 = add i32 %9, %7
  store i32 %add2, ptr %dz, align 8
  %10 = load i32, ptr %buttons_state.addr, align 4
  %11 = load ptr, ptr %s, align 8
  %buttons_state3 = getelementptr inbounds %struct.USBWacomState, ptr %11, i32 0, i32 6
  store i32 %10, ptr %buttons_state3, align 4
  %12 = load ptr, ptr %s, align 8
  %changed = getelementptr inbounds %struct.USBWacomState, ptr %12, i32 0, i32 12
  store i32 1, ptr %changed, align 4
  %13 = load ptr, ptr %s, align 8
  %intr = getelementptr inbounds %struct.USBWacomState, ptr %13, i32 0, i32 1
  %14 = load ptr, ptr %intr, align 8
  call void @usb_wakeup(ptr noundef %14, i32 noundef 0)
  ret void
}