; Function Attrs: nounwind sspstrong uwtable
define internal void @usb_mouse_event(ptr noundef captures(none) initializes((5892, 5896), (5916, 5920)) %opaque, i32 noundef %dx1, i32 noundef %dy1, i32 noundef %dz1, i32 noundef %buttons_state) #0 {
entry:
  %dx = getelementptr inbounds nuw i8, ptr %opaque, i64 5880
  %0 = load i32, ptr %dx, align 8
  %add = add i32 %0, %dx1
  store i32 %add, ptr %dx, align 8
  %dy = getelementptr inbounds nuw i8, ptr %opaque, i64 5884
  %1 = load i32, ptr %dy, align 4
  %add1 = add i32 %1, %dy1
  store i32 %add1, ptr %dy, align 4
  %dz = getelementptr inbounds nuw i8, ptr %opaque, i64 5888
  %2 = load i32, ptr %dz, align 8
  %add2 = add i32 %2, %dz1
  store i32 %add2, ptr %dz, align 8
  %buttons_state3 = getelementptr inbounds nuw i8, ptr %opaque, i64 5892
  store i32 %buttons_state, ptr %buttons_state3, align 4
  %changed = getelementptr inbounds nuw i8, ptr %opaque, i64 5916
  store i32 1, ptr %changed, align 4
  %intr = getelementptr inbounds nuw i8, ptr %opaque, i64 5864
  %3 = load ptr, ptr %intr, align 8
  tail call void @usb_wakeup(ptr noundef %3, i32 noundef 0) #7
  ret void
}